target datalayout = "e-m:e-p270:32:32-p271:32:32-p272:64:64-i64:64-i128:128-f80:128-n8:16:32:64-S128"
target triple = "x86_64-pc-linux-gnu"

%struct.ossl_encoder_ctx_st = type { i32, ptr, ptr, ptr, ptr, ptr, ptr, %struct.ossl_passphrase_data_st }
%struct.ossl_passphrase_data_st = type { i32, %union.anon, i8, ptr, i64 }
%union.anon = type { %struct.anon }
%struct.anon = type { ptr, i64 }
%struct.ossl_encoder_st = type { %struct.ossl_endecode_base_st, ptr, ptr, ptr, ptr, ptr, ptr, ptr, ptr, ptr, ptr }
%struct.ossl_endecode_base_st = type { ptr, i32, ptr, ptr, ptr, %struct.CRYPTO_REF_COUNT }
%struct.CRYPTO_REF_COUNT = type { i32 }
%struct.ossl_encoder_instance_st = type { ptr, ptr, ptr, ptr }

@.str = private unnamed_addr constant [46 x i8] c"../openssl/crypto/encode_decode/encoder_lib.c\00", align 1
@__func__.OSSL_ENCODER_CTX_add_encoder = private unnamed_addr constant [29 x i8] c"OSSL_ENCODER_CTX_add_encoder\00", align 1
@__func__.ossl_encoder_instance_new = private unnamed_addr constant [26 x i8] c"ossl_encoder_instance_new\00", align 1
@.str.27 = private unnamed_addr constant [50 x i8] c"there are no property definitions with encoder %s\00", align 1
@.str.28 = private unnamed_addr constant [7 x i8] c"output\00", align 1
@.str.29 = private unnamed_addr constant [75 x i8] c"the mandatory 'output' property is missing for encoder %s (properties: %s)\00", align 1
@.str.30 = private unnamed_addr constant [10 x i8] c"structure\00", align 1
@__func__.ossl_encoder_ctx_add_encoder_inst = private unnamed_addr constant [34 x i8] c"ossl_encoder_ctx_add_encoder_inst\00", align 1

; Function Attrs: inlinehint nounwind uwtable
define internal i32 @sk_OSSL_ENCODER_INSTANCE_push(ptr noundef %0, ptr noundef %1) #6 {
  %3 = alloca ptr, align 8
  %4 = alloca ptr, align 8
  store ptr %0, ptr %3, align 8, !tbaa !82
  store ptr %1, ptr %4, align 8, !tbaa !26
  %5 = load ptr, ptr %3, align 8, !tbaa !82
  %6 = load ptr, ptr %4, align 8, !tbaa !26
  %7 = call i32 @OPENSSL_sk_push(ptr noundef %5, ptr noundef %6)
  ret i32 %7
}

; Function Attrs: inlinehint nounwind uwtable
define internal ptr @sk_OSSL_ENCODER_INSTANCE_new_null() #6 {
  %1 = call ptr @OPENSSL_sk_new_null()
  ret ptr %1
}

; Function Attrs: nounwind uwtable
define void @ossl_encoder_instance_free(ptr noundef %0) #0 {
  %2 = alloca ptr, align 8
  store ptr %0, ptr %2, align 8, !tbaa !26
  %3 = load ptr, ptr %2, align 8, !tbaa !26
  %4 = icmp ne ptr %3, null
  br i1 %4, label %5, label %28

5:                                                ; preds = %1
  %6 = load ptr, ptr %2, align 8, !tbaa !26
  %7 = getelementptr inbounds nuw %struct.ossl_encoder_instance_st, ptr %6, i32 0, i32 0
  %8 = load ptr, ptr %7, align 8, !tbaa !69
  %9 = icmp ne ptr %8, null
  br i1 %9, label %10, label %19

10:                                               ; preds = %5
  %11 = load ptr, ptr %2, align 8, !tbaa !26
  %12 = getelementptr inbounds nuw %struct.ossl_encoder_instance_st, ptr %11, i32 0, i32 0
  %13 = load ptr, ptr %12, align 8, !tbaa !69
  %14 = getelementptr inbounds nuw %struct.ossl_encoder_st, ptr %13, i32 0, i32 2
  %15 = load ptr, ptr %14, align 8, !tbaa !71
  %16 = load ptr, ptr %2, align 8, !tbaa !26
  %17 = getelementptr inbounds nuw %struct.ossl_encoder_instance_st, ptr %16, i32 0, i32 1
  %18 = load ptr, ptr %17, align 8, !tbaa !72
  call void %15(ptr noundef %18)
  br label %19

19:                                               ; preds = %10, %5
  %20 = load ptr, ptr %2, align 8, !tbaa !26
  %21 = getelementptr inbounds nuw %struct.ossl_encoder_instance_st, ptr %20, i32 0, i32 1
  store ptr null, ptr %21, align 8, !tbaa !72
  %22 = load ptr, ptr %2, align 8, !tbaa !26
  %23 = getelementptr inbounds nuw %struct.ossl_encoder_instance_st, ptr %22, i32 0, i32 0
  %24 = load ptr, ptr %23, align 8, !tbaa !69
  call void @OSSL_ENCODER_free(ptr noundef %24)
  %25 = load ptr, ptr %2, align 8, !tbaa !26
  %26 = getelementptr inbounds nuw %struct.ossl_encoder_instance_st, ptr %25, i32 0, i32 0
  store ptr null, ptr %26, align 8, !tbaa !69
  %27 = load ptr, ptr %2, align 8, !tbaa !26
  call void @CRYPTO_free(ptr noundef %27, ptr noundef @.str, i32 noundef 276)
  br label %28

28:                                               ; preds = %19, %1
  ret void
}

; Function Attrs: nounwind uwtable
define internal i32 @ossl_encoder_ctx_add_encoder_inst(ptr noundef %0, ptr noundef %1) #0 {
  %3 = alloca i32, align 4
  %4 = alloca ptr, align 8
  %5 = alloca ptr, align 8
  %6 = alloca i32, align 4
  %7 = alloca i32, align 4
  %8 = alloca ptr, align 8
  store ptr %0, ptr %4, align 8, !tbaa !3
  store ptr %1, ptr %5, align 8, !tbaa !26
  call void @llvm.lifetime.start.p0(i64 4, ptr %6) #8
  %9 = load ptr, ptr %4, align 8, !tbaa !3
  %10 = getelementptr inbounds nuw %struct.ossl_encoder_ctx_st, ptr %9, i32 0, i32 3
  %11 = load ptr, ptr %10, align 8, !tbaa !23
  %12 = icmp eq ptr %11, null
  br i1 %12, label %13, label %19

13:                                               ; preds = %2
  %14 = call ptr @sk_OSSL_ENCODER_INSTANCE_new_null()
  %15 = load ptr, ptr %4, align 8, !tbaa !3
  %16 = getelementptr inbounds nuw %struct.ossl_encoder_ctx_st, ptr %15, i32 0, i32 3
  store ptr %14, ptr %16, align 8, !tbaa !23
  %17 = icmp eq ptr %14, null
  br i1 %17, label %18, label %19

18:                                               ; preds = %13
  call void @ERR_new()
  call void @ERR_set_debug(ptr noundef @.str, i32 noundef 288, ptr noundef @__func__.ossl_encoder_ctx_add_encoder_inst)
  call void (i32, i32, ptr, ...) @ERR_set_error(i32 noundef 59, i32 noundef 524303, ptr noundef null)
  store i32 0, ptr %3, align 4
  store i32 1, ptr %7, align 4
  br label %35

19:                                               ; preds = %13, %2
  %20 = load ptr, ptr %4, align 8, !tbaa !3
  %21 = getelementptr inbounds nuw %struct.ossl_encoder_ctx_st, ptr %20, i32 0, i32 3
  %22 = load ptr, ptr %21, align 8, !tbaa !23
  %23 = load ptr, ptr %5, align 8, !tbaa !26
  %24 = call i32 @sk_OSSL_ENCODER_INSTANCE_push(ptr noundef %22, ptr noundef %23)
  %25 = icmp sgt i32 %24, 0
  %26 = zext i1 %25 to i32
  store i32 %26, ptr %6, align 4, !tbaa !32
  %27 = load i32, ptr %6, align 4, !tbaa !32
  %28 = icmp ne i32 %27, 0
  br i1 %28, label %29, label %33

29:                                               ; preds = %19
  br label %30

30:                                               ; preds = %29
  call void @llvm.lifetime.start.p0(i64 8, ptr %8) #8
  store ptr null, ptr %8, align 8, !tbaa !8
  call void @llvm.lifetime.end.p0(i64 8, ptr %8) #8
  br label %31

31:                                               ; preds = %30
  br label %32

32:                                               ; preds = %31
  br label %33

33:                                               ; preds = %32, %19
  %34 = load i32, ptr %6, align 4, !tbaa !32
  store i32 %34, ptr %3, align 4
  store i32 1, ptr %7, align 4
  br label %35

35:                                               ; preds = %33, %18
  call void @llvm.lifetime.end.p0(i64 4, ptr %6) #8
  %36 = load i32, ptr %3, align 4
  ret i32 %36
}

; Function Attrs: nounwind uwtable
define internal ptr @ossl_encoder_instance_new(ptr noundef %0, ptr noundef %1) #0 {
  %3 = alloca ptr, align 8
  %4 = alloca ptr, align 8
  %5 = alloca ptr, align 8
  %6 = alloca ptr, align 8
  %7 = alloca ptr, align 8
  %8 = alloca ptr, align 8
  %9 = alloca ptr, align 8
  %10 = alloca ptr, align 8
  %11 = alloca i32, align 4
  store ptr %0, ptr %4, align 8, !tbaa !27
  store ptr %1, ptr %5, align 8, !tbaa !29
  call void @llvm.lifetime.start.p0(i64 8, ptr %6) #8
  store ptr null, ptr %6, align 8, !tbaa !26
  call void @llvm.lifetime.start.p0(i64 8, ptr %7) #8
  call void @llvm.lifetime.start.p0(i64 8, ptr %8) #8
  call void @llvm.lifetime.start.p0(i64 8, ptr %9) #8
  call void @llvm.lifetime.start.p0(i64 8, ptr %10) #8
  %12 = load ptr, ptr %4, align 8, !tbaa !27
  %13 = icmp ne ptr %12, null
  %14 = zext i1 %13 to i32
  %15 = icmp ne i32 %14, 0
  %16 = xor i1 %15, true
  %17 = xor i1 %16, true
  %18 = zext i1 %17 to i32
  %19 = sext i32 %18 to i64
  %20 = call i64 @llvm.expect.i64(i64 %19, i64 1)
  %21 = icmp ne i64 %20, 0
  br i1 %21, label %23, label %22

22:                                               ; preds = %2
  call void @ERR_new()
  call void @ERR_set_debug(ptr noundef @.str, i32 noundef 220, ptr noundef @__func__.ossl_encoder_instance_new)
  call void (i32, i32, ptr, ...) @ERR_set_error(i32 noundef 59, i32 noundef 786690, ptr noundef null)
  store ptr null, ptr %3, align 8
  store i32 1, ptr %11, align 4
  br label %84

23:                                               ; preds = %2
  %24 = call noalias ptr @CRYPTO_zalloc(i64 noundef 32, ptr noundef @.str, i32 noundef 224)
  store ptr %24, ptr %6, align 8, !tbaa !26
  %25 = icmp eq ptr %24, null
  br i1 %25, label %26, label %27

26:                                               ; preds = %23
  store ptr null, ptr %3, align 8
  store i32 1, ptr %11, align 4
  br label %84

27:                                               ; preds = %23
  %28 = load ptr, ptr %4, align 8, !tbaa !27
  %29 = call i32 @OSSL_ENCODER_up_ref(ptr noundef %28)
  %30 = icmp ne i32 %29, 0
  br i1 %30, label %32, label %31

31:                                               ; preds = %27
  call void @ERR_new()
  call void @ERR_set_debug(ptr noundef @.str, i32 noundef 228, ptr noundef @__func__.ossl_encoder_instance_new)
  call void (i32, i32, ptr, ...) @ERR_set_error(i32 noundef 59, i32 noundef 786691, ptr noundef null)
  br label %82

32:                                               ; preds = %27
  %33 = load ptr, ptr %4, align 8, !tbaa !27
  %34 = call ptr @OSSL_ENCODER_get0_provider(ptr noundef %33)
  store ptr %34, ptr %7, align 8, !tbaa !73
  %35 = load ptr, ptr %7, align 8, !tbaa !73
  %36 = call ptr @ossl_provider_libctx(ptr noundef %35)
  store ptr %36, ptr %8, align 8, !tbaa !75
  %37 = load ptr, ptr %4, align 8, !tbaa !27
  %38 = call ptr @ossl_encoder_parsed_properties(ptr noundef %37)
  store ptr %38, ptr %9, align 8, !tbaa !77
  %39 = load ptr, ptr %9, align 8, !tbaa !77
  %40 = icmp eq ptr %39, null
  br i1 %40, label %41, label %44

41:                                               ; preds = %32
  call void @ERR_new()
  call void @ERR_set_debug(ptr noundef @.str, i32 noundef 236, ptr noundef @__func__.ossl_encoder_instance_new)
  %42 = load ptr, ptr %4, align 8, !tbaa !27
  %43 = call ptr @OSSL_ENCODER_get0_name(ptr noundef %42)
  call void (i32, i32, ptr, ...) @ERR_set_error(i32 noundef 60, i32 noundef 524558, ptr noundef @.str.27, ptr noundef %43)
  br label %82

44:                                               ; preds = %32
  %45 = load ptr, ptr %9, align 8, !tbaa !77
  %46 = load ptr, ptr %8, align 8, !tbaa !75
  %47 = call ptr @ossl_property_find_property(ptr noundef %45, ptr noundef %46, ptr noundef @.str.28)
  store ptr %47, ptr %10, align 8, !tbaa !78
  %48 = load ptr, ptr %8, align 8, !tbaa !75
  %49 = load ptr, ptr %10, align 8, !tbaa !78
  %50 = call ptr @ossl_property_get_string_value(ptr noundef %48, ptr noundef %49)
  %51 = load ptr, ptr %6, align 8, !tbaa !26
  %52 = getelementptr inbounds nuw %struct.ossl_encoder_instance_st, ptr %51, i32 0, i32 2
  store ptr %50, ptr %52, align 8, !tbaa !80
  %53 = load ptr, ptr %6, align 8, !tbaa !26
  %54 = getelementptr inbounds nuw %struct.ossl_encoder_instance_st, ptr %53, i32 0, i32 2
  %55 = load ptr, ptr %54, align 8, !tbaa !80
  %56 = icmp eq ptr %55, null
  br i1 %56, label %57, label %62

57:                                               ; preds = %44
  call void @ERR_new()
  call void @ERR_set_debug(ptr noundef @.str, i32 noundef 246, ptr noundef @__func__.ossl_encoder_instance_new)
  %58 = load ptr, ptr %4, align 8, !tbaa !27
  %59 = call ptr @OSSL_ENCODER_get0_name(ptr noundef %58)
  %60 = load ptr, ptr %4, align 8, !tbaa !27
  %61 = call ptr @OSSL_ENCODER_get0_properties(ptr noundef %60)
  call void (i32, i32, ptr, ...) @ERR_set_error(i32 noundef 60, i32 noundef 524558, ptr noundef @.str.29, ptr noundef %59, ptr noundef %61)
  br label %82

62:                                               ; preds = %44
  %63 = load ptr, ptr %9, align 8, !tbaa !77
  %64 = load ptr, ptr %8, align 8, !tbaa !75
  %65 = call ptr @ossl_property_find_property(ptr noundef %63, ptr noundef %64, ptr noundef @.str.30)
  store ptr %65, ptr %10, align 8, !tbaa !78
  %66 = load ptr, ptr %10, align 8, !tbaa !78
  %67 = icmp ne ptr %66, null
  br i1 %67, label %68, label %74

68:                                               ; preds = %62
  %69 = load ptr, ptr %8, align 8, !tbaa !75
  %70 = load ptr, ptr %10, align 8, !tbaa !78
  %71 = call ptr @ossl_property_get_string_value(ptr noundef %69, ptr noundef %70)
  %72 = load ptr, ptr %6, align 8, !tbaa !26
  %73 = getelementptr inbounds nuw %struct.ossl_encoder_instance_st, ptr %72, i32 0, i32 3
  store ptr %71, ptr %73, align 8, !tbaa !81
  br label %74

74:                                               ; preds = %68, %62
  %75 = load ptr, ptr %4, align 8, !tbaa !27
  %76 = load ptr, ptr %6, align 8, !tbaa !26
  %77 = getelementptr inbounds nuw %struct.ossl_encoder_instance_st, ptr %76, i32 0, i32 0
  store ptr %75, ptr %77, align 8, !tbaa !69
  %78 = load ptr, ptr %5, align 8, !tbaa !29
  %79 = load ptr, ptr %6, align 8, !tbaa !26
  %80 = getelementptr inbounds nuw %struct.ossl_encoder_instance_st, ptr %79, i32 0, i32 1
  store ptr %78, ptr %80, align 8, !tbaa !72
  %81 = load ptr, ptr %6, align 8, !tbaa !26
  store ptr %81, ptr %3, align 8
  store i32 1, ptr %11, align 4
  br label %84

82:                                               ; preds = %57, %41, %31
  %83 = load ptr, ptr %6, align 8, !tbaa !26
  call void @ossl_encoder_instance_free(ptr noundef %83)
  store ptr null, ptr %3, align 8
  store i32 1, ptr %11, align 4
  br label %84

84:                                               ; preds = %82, %74, %26, %22
  call void @llvm.lifetime.end.p0(i64 8, ptr %10) #8
  call void @llvm.lifetime.end.p0(i64 8, ptr %9) #8
  call void @llvm.lifetime.end.p0(i64 8, ptr %8) #8
  call void @llvm.lifetime.end.p0(i64 8, ptr %7) #8
  call void @llvm.lifetime.end.p0(i64 8, ptr %6) #8
  %85 = load ptr, ptr %3, align 8
  ret ptr %85
}

; Function Attrs: nounwind uwtable
define i32 @OSSL_ENCODER_CTX_add_encoder(ptr noundef %0, ptr noundef %1) #0 {
  %3 = alloca i32, align 4
  %4 = alloca ptr, align 8
  %5 = alloca ptr, align 8
  %6 = alloca ptr, align 8
  %7 = alloca ptr, align 8
  %8 = alloca ptr, align 8
  %9 = alloca ptr, align 8
  %10 = alloca i32, align 4
  store ptr %0, ptr %4, align 8, !tbaa !3
  store ptr %1, ptr %5, align 8, !tbaa !27
  call void @llvm.lifetime.start.p0(i64 8, ptr %6) #8
  store ptr null, ptr %6, align 8, !tbaa !26
  call void @llvm.lifetime.start.p0(i64 8, ptr %7) #8
  store ptr null, ptr %7, align 8, !tbaa !73
  call void @llvm.lifetime.start.p0(i64 8, ptr %8) #8
  store ptr null, ptr %8, align 8, !tbaa !29
  call void @llvm.lifetime.start.p0(i64 8, ptr %9) #8
  store ptr null, ptr %9, align 8, !tbaa !29
  %11 = load ptr, ptr %4, align 8, !tbaa !3
  %12 = icmp ne ptr %11, null
  %13 = zext i1 %12 to i32
  %14 = icmp ne i32 %13, 0
  %15 = xor i1 %14, true
  %16 = xor i1 %15, true
  %17 = zext i1 %16 to i32
  %18 = sext i32 %17 to i64
  %19 = call i64 @llvm.expect.i64(i64 %18, i64 1)
  %20 = icmp ne i64 %19, 0
  br i1 %20, label %21, label %32

21:                                               ; preds = %2
  %22 = load ptr, ptr %5, align 8, !tbaa !27
  %23 = icmp ne ptr %22, null
  %24 = zext i1 %23 to i32
  %25 = icmp ne i32 %24, 0
  %26 = xor i1 %25, true
  %27 = xor i1 %26, true
  %28 = zext i1 %27 to i32
  %29 = sext i32 %28 to i64
  %30 = call i64 @llvm.expect.i64(i64 %29, i64 1)
  %31 = icmp ne i64 %30, 0
  br i1 %31, label %33, label %32

32:                                               ; preds = %21, %2
  call void @ERR_new()
  call void @ERR_set_debug(ptr noundef @.str, i32 noundef 314, ptr noundef @__func__.OSSL_ENCODER_CTX_add_encoder)
  call void (i32, i32, ptr, ...) @ERR_set_error(i32 noundef 59, i32 noundef 786690, ptr noundef null)
  store i32 0, ptr %3, align 4
  store i32 1, ptr %10, align 4
  br label %67

33:                                               ; preds = %21
  %34 = load ptr, ptr %5, align 8, !tbaa !27
  %35 = call ptr @OSSL_ENCODER_get0_provider(ptr noundef %34)
  store ptr %35, ptr %7, align 8, !tbaa !73
  %36 = load ptr, ptr %7, align 8, !tbaa !73
  %37 = call ptr @OSSL_PROVIDER_get0_provider_ctx(ptr noundef %36)
  store ptr %37, ptr %9, align 8, !tbaa !29
  %38 = load ptr, ptr %5, align 8, !tbaa !27
  %39 = getelementptr inbounds nuw %struct.ossl_encoder_st, ptr %38, i32 0, i32 1
  %40 = load ptr, ptr %39, align 8, !tbaa !74
  %41 = load ptr, ptr %9, align 8, !tbaa !29
  %42 = call ptr %40(ptr noundef %41)
  store ptr %42, ptr %8, align 8, !tbaa !29
  %43 = icmp eq ptr %42, null
  br i1 %43, label %49, label %44

44:                                               ; preds = %33
  %45 = load ptr, ptr %5, align 8, !tbaa !27
  %46 = load ptr, ptr %8, align 8, !tbaa !29
  %47 = call ptr @ossl_encoder_instance_new(ptr noundef %45, ptr noundef %46)
  store ptr %47, ptr %6, align 8, !tbaa !26
  %48 = icmp eq ptr %47, null
  br i1 %48, label %49, label %50

49:                                               ; preds = %44, %33
  br label %57

50:                                               ; preds = %44
  store ptr null, ptr %8, align 8, !tbaa !29
  %51 = load ptr, ptr %4, align 8, !tbaa !3
  %52 = load ptr, ptr %6, align 8, !tbaa !26
  %53 = call i32 @ossl_encoder_ctx_add_encoder_inst(ptr noundef %51, ptr noundef %52)
  %54 = icmp ne i32 %53, 0
  br i1 %54, label %56, label %55

55:                                               ; preds = %50
  br label %57

56:                                               ; preds = %50
  store i32 1, ptr %3, align 4
  store i32 1, ptr %10, align 4
  br label %67

57:                                               ; preds = %55, %49
  %58 = load ptr, ptr %6, align 8, !tbaa !26
  call void @ossl_encoder_instance_free(ptr noundef %58)
  %59 = load ptr, ptr %8, align 8, !tbaa !29
  %60 = icmp ne ptr %59, null
  br i1 %60, label %61, label %66

61:                                               ; preds = %57
  %62 = load ptr, ptr %5, align 8, !tbaa !27
  %63 = getelementptr inbounds nuw %struct.ossl_encoder_st, ptr %62, i32 0, i32 2
  %64 = load ptr, ptr %63, align 8, !tbaa !71
  %65 = load ptr, ptr %8, align 8, !tbaa !29
  call void %64(ptr noundef %65)
  br label %66

66:                                               ; preds = %61, %57
  store i32 0, ptr %3, align 4
  store i32 1, ptr %10, align 4
  br label %67

67:                                               ; preds = %66, %56, %32
  call void @llvm.lifetime.end.p0(i64 8, ptr %9) #8
  call void @llvm.lifetime.end.p0(i64 8, ptr %8) #8
  call void @llvm.lifetime.end.p0(i64 8, ptr %7) #8
  call void @llvm.lifetime.end.p0(i64 8, ptr %6) #8
  %68 = load i32, ptr %3, align 4
  ret i32 %68
}