; Function Attrs: nounwind uwtable
define range(i32 0, 2) i32 @OSSL_ENCODER_CTX_add_encoder(ptr noundef captures(address_is_null) %0, ptr noundef %1) local_unnamed_addr #0 {
  %.not = icmp eq ptr %0, null
  %.not21 = icmp eq ptr %1, null
  %or.cond = or i1 %.not, %.not21
  br i1 %or.cond, label %3, label %4, !prof !59

3:                                                ; preds = %2
  tail call void @ERR_new() #8
  tail call void @ERR_set_debug(ptr noundef nonnull @.str, i32 noundef 314, ptr noundef nonnull @__func__.OSSL_ENCODER_CTX_add_encoder) #8
  tail call void (i32, i32, ptr, ...) @ERR_set_error(i32 noundef 59, i32 noundef 786690, ptr noundef null) #8
  br label %ossl_encoder_instance_free.exit.thread35

4:                                                ; preds = %2
  %5 = tail call ptr @OSSL_ENCODER_get0_provider(ptr noundef nonnull %1) #8
  %6 = tail call ptr @OSSL_PROVIDER_get0_provider_ctx(ptr noundef %5) #8
  %7 = getelementptr inbounds nuw i8, ptr %1, i64 48
  %8 = load ptr, ptr %7, align 8, !tbaa !61
  %9 = tail call ptr %8(ptr noundef %6) #8
  %10 = icmp eq ptr %9, null
  br i1 %10, label %ossl_encoder_instance_free.exit.thread35, label %11

11:                                               ; preds = %4
  %12 = tail call noalias ptr @CRYPTO_zalloc(i64 noundef 32, ptr noundef nonnull @.str, i32 noundef 224) #8
  %13 = icmp eq ptr %12, null
  br i1 %13, label %ossl_encoder_instance_free.exit, label %14

14:                                               ; preds = %11
  %15 = tail call i32 @OSSL_ENCODER_up_ref(ptr noundef nonnull %1) #8
  %.not.i = icmp eq i32 %15, 0
  br i1 %.not.i, label %16, label %17

16:                                               ; preds = %14
  tail call void @ERR_new() #8
  tail call void @ERR_set_debug(ptr noundef nonnull @.str, i32 noundef 228, ptr noundef nonnull @__func__.ossl_encoder_instance_new) #8
  tail call void (i32, i32, ptr, ...) @ERR_set_error(i32 noundef 59, i32 noundef 786691, ptr noundef null) #8
  br label %37

17:                                               ; preds = %14
  %18 = tail call ptr @OSSL_ENCODER_get0_provider(ptr noundef nonnull %1) #8
  %19 = tail call ptr @ossl_provider_libctx(ptr noundef %18) #8
  %20 = tail call ptr @ossl_encoder_parsed_properties(ptr noundef nonnull %1) #8
  %21 = icmp eq ptr %20, null
  br i1 %21, label %22, label %24

22:                                               ; preds = %17
  tail call void @ERR_new() #8
  tail call void @ERR_set_debug(ptr noundef nonnull @.str, i32 noundef 236, ptr noundef nonnull @__func__.ossl_encoder_instance_new) #8
  %23 = tail call ptr @OSSL_ENCODER_get0_name(ptr noundef nonnull %1) #8
  tail call void (i32, i32, ptr, ...) @ERR_set_error(i32 noundef 60, i32 noundef 524558, ptr noundef nonnull @.str.27, ptr noundef %23) #8
  br label %37

24:                                               ; preds = %17
  %25 = tail call ptr @ossl_property_find_property(ptr noundef nonnull %20, ptr noundef %19, ptr noundef nonnull @.str.28) #8
  %26 = tail call ptr @ossl_property_get_string_value(ptr noundef %19, ptr noundef %25) #8
  %27 = getelementptr inbounds nuw i8, ptr %12, i64 16
  store ptr %26, ptr %27, align 8, !tbaa !29
  %28 = icmp eq ptr %26, null
  br i1 %28, label %29, label %32

29:                                               ; preds = %24
  tail call void @ERR_new() #8
  tail call void @ERR_set_debug(ptr noundef nonnull @.str, i32 noundef 246, ptr noundef nonnull @__func__.ossl_encoder_instance_new) #8
  %30 = tail call ptr @OSSL_ENCODER_get0_name(ptr noundef nonnull %1) #8
  %31 = tail call ptr @OSSL_ENCODER_get0_properties(ptr noundef nonnull %1) #8
  tail call void (i32, i32, ptr, ...) @ERR_set_error(i32 noundef 60, i32 noundef 524558, ptr noundef nonnull @.str.29, ptr noundef %30, ptr noundef %31) #8
  br label %37

32:                                               ; preds = %24
  %33 = tail call ptr @ossl_property_find_property(ptr noundef nonnull %20, ptr noundef %19, ptr noundef nonnull @.str.30) #8
  %.not32.i = icmp eq ptr %33, null
  br i1 %.not32.i, label %45, label %34

34:                                               ; preds = %32
  %35 = tail call ptr @ossl_property_get_string_value(ptr noundef %19, ptr noundef nonnull %33) #8
  %36 = getelementptr inbounds nuw i8, ptr %12, i64 24
  store ptr %35, ptr %36, align 8, !tbaa !30
  br label %45

37:                                               ; preds = %29, %22, %16
  %38 = load ptr, ptr %12, align 8, !tbaa !25
  %.not9.i.i = icmp eq ptr %38, null
  br i1 %.not9.i.i, label %ossl_encoder_instance_free.exit.i, label %39

39:                                               ; preds = %37
  %40 = getelementptr inbounds nuw i8, ptr %38, i64 56
  %41 = load ptr, ptr %40, align 8, !tbaa !60
  %42 = getelementptr inbounds nuw i8, ptr %12, i64 8
  %43 = load ptr, ptr %42, align 8, !tbaa !28
  tail call void %41(ptr noundef %43) #8
  br label %ossl_encoder_instance_free.exit.i

ossl_encoder_instance_free.exit.i:                ; preds = %39, %37
  %44 = getelementptr inbounds nuw i8, ptr %12, i64 8
  store ptr null, ptr %44, align 8, !tbaa !28
  tail call void @OSSL_ENCODER_free(ptr noundef %38) #8
  store ptr null, ptr %12, align 8, !tbaa !25
  tail call void @CRYPTO_free(ptr noundef nonnull %12, ptr noundef nonnull @.str, i32 noundef 276) #8
  br label %ossl_encoder_instance_free.exit

45:                                               ; preds = %34, %32
  store ptr %1, ptr %12, align 8, !tbaa !25
  %46 = getelementptr inbounds nuw i8, ptr %12, i64 8
  store ptr %9, ptr %46, align 8, !tbaa !28
  %47 = getelementptr inbounds nuw i8, ptr %0, i64 24
  %48 = load ptr, ptr %47, align 8, !tbaa !15
  %49 = icmp eq ptr %48, null
  br i1 %49, label %50, label %ossl_encoder_ctx_add_encoder_inst.exit

50:                                               ; preds = %45
  %51 = tail call ptr @OPENSSL_sk_new_null() #8
  store ptr %51, ptr %47, align 8, !tbaa !15
  %52 = icmp eq ptr %51, null
  br i1 %52, label %ossl_encoder_ctx_add_encoder_inst.exit.thread, label %ossl_encoder_ctx_add_encoder_inst.exit

ossl_encoder_ctx_add_encoder_inst.exit.thread:    ; preds = %50
  tail call void @ERR_new() #8
  tail call void @ERR_set_debug(ptr noundef nonnull @.str, i32 noundef 288, ptr noundef nonnull @__func__.ossl_encoder_ctx_add_encoder_inst) #8
  tail call void (i32, i32, ptr, ...) @ERR_set_error(i32 noundef 59, i32 noundef 524303, ptr noundef null) #8
  br label %56

ossl_encoder_ctx_add_encoder_inst.exit:           ; preds = %45, %50
  %53 = phi ptr [ %51, %50 ], [ %48, %45 ]
  %54 = tail call i32 @OPENSSL_sk_push(ptr noundef nonnull %53, ptr noundef nonnull %12) #8
  %55 = icmp slt i32 %54, 1
  br i1 %55, label %56, label %ossl_encoder_instance_free.exit.thread35

56:                                               ; preds = %ossl_encoder_ctx_add_encoder_inst.exit, %ossl_encoder_ctx_add_encoder_inst.exit.thread
  %57 = load ptr, ptr %12, align 8, !tbaa !25
  %.not9.i = icmp eq ptr %57, null
  br i1 %.not9.i, label %ossl_encoder_instance_free.exit.thread, label %58

58:                                               ; preds = %56
  %59 = getelementptr inbounds nuw i8, ptr %57, i64 56
  %60 = load ptr, ptr %59, align 8, !tbaa !60
  %61 = load ptr, ptr %46, align 8, !tbaa !28
  tail call void %60(ptr noundef %61) #8
  %.pre.i = load ptr, ptr %12, align 8, !tbaa !25
  br label %ossl_encoder_instance_free.exit.thread

ossl_encoder_instance_free.exit.thread:           ; preds = %56, %58
  %62 = phi ptr [ %.pre.i, %58 ], [ null, %56 ]
  store ptr null, ptr %46, align 8, !tbaa !28
  tail call void @OSSL_ENCODER_free(ptr noundef %62) #8
  store ptr null, ptr %12, align 8, !tbaa !25
  tail call void @CRYPTO_free(ptr noundef nonnull %12, ptr noundef nonnull @.str, i32 noundef 276) #8
  br label %ossl_encoder_instance_free.exit.thread35

ossl_encoder_instance_free.exit:                  ; preds = %11, %ossl_encoder_instance_free.exit.i
  %63 = getelementptr inbounds nuw i8, ptr %1, i64 56
  %64 = load ptr, ptr %63, align 8, !tbaa !60
  tail call void %64(ptr noundef nonnull %9) #8
  br label %ossl_encoder_instance_free.exit.thread35

ossl_encoder_instance_free.exit.thread35:         ; preds = %4, %ossl_encoder_instance_free.exit.thread, %ossl_encoder_instance_free.exit, %ossl_encoder_ctx_add_encoder_inst.exit, %3
  %.015 = phi i32 [ 0, %3 ], [ 1, %ossl_encoder_ctx_add_encoder_inst.exit ], [ 0, %ossl_encoder_instance_free.exit ], [ 0, %ossl_encoder_instance_free.exit.thread ], [ 0, %4 ]
  ret i32 %.015
}